target datalayout = "e-m:e-p270:32:32-p271:32:32-p272:64:64-i64:64-i128:128-f80:128-n8:16:32:64-S128"
target triple = "x86_64-pc-linux-gnu"

%struct.WC_PKCS12 = type { ptr, ptr, ptr, i32, i8 }
%struct.MacData = type { ptr, ptr, i32, i32, i32, i32 }
%struct.AuthenticatedSafe = type { ptr, ptr, i32, i32, i32 }

; Function Attrs: nounwind uwtable
define internal i32 @wc_PKCS12_verify(ptr noundef %0, ptr noundef %1, i32 noundef %2, ptr noundef %3, i32 noundef %4) #0 {
  %6 = alloca i32, align 4
  %7 = alloca ptr, align 8
  %8 = alloca ptr, align 8
  %9 = alloca i32, align 4
  %10 = alloca ptr, align 8
  %11 = alloca i32, align 4
  %12 = alloca ptr, align 8
  %13 = alloca i32, align 4
  %14 = alloca [64 x i8], align 16
  %15 = alloca i32, align 4
  store ptr %0, ptr %7, align 8, !tbaa !7
  store ptr %1, ptr %8, align 8, !tbaa !32
  store i32 %2, ptr %9, align 4, !tbaa !24
  store ptr %3, ptr %10, align 8, !tbaa !32
  store i32 %4, ptr %11, align 4, !tbaa !24
  call void @llvm.lifetime.start.p0(i64 8, ptr %12) #7
  call void @llvm.lifetime.start.p0(i64 4, ptr %13) #7
  call void @llvm.lifetime.start.p0(i64 64, ptr %14) #7
  %16 = load ptr, ptr %7, align 8, !tbaa !7
  %17 = icmp eq ptr %16, null
  br i1 %17, label %26, label %18

18:                                               ; preds = %5
  %19 = load ptr, ptr %7, align 8, !tbaa !7
  %20 = getelementptr inbounds nuw %struct.WC_PKCS12, ptr %19, i32 0, i32 2
  %21 = load ptr, ptr %20, align 8, !tbaa !15
  %22 = icmp eq ptr %21, null
  br i1 %22, label %26, label %23

23:                                               ; preds = %18
  %24 = load ptr, ptr %8, align 8, !tbaa !32
  %25 = icmp eq ptr %24, null
  br i1 %25, label %26, label %27

26:                                               ; preds = %23, %18, %5
  store i32 -173, ptr %6, align 4
  store i32 1, ptr %15, align 4
  br label %60

27:                                               ; preds = %23
  %28 = load ptr, ptr %7, align 8, !tbaa !7
  %29 = getelementptr inbounds nuw %struct.WC_PKCS12, ptr %28, i32 0, i32 2
  %30 = load ptr, ptr %29, align 8, !tbaa !15
  store ptr %30, ptr %12, align 8, !tbaa !34
  %31 = load ptr, ptr %12, align 8, !tbaa !34
  %32 = getelementptr inbounds nuw %struct.MacData, ptr %31, i32 0, i32 3
  %33 = load i32, ptr %32, align 4, !tbaa !35
  %34 = icmp ugt i32 %33, 64
  br i1 %34, label %35, label %39

35:                                               ; preds = %27
  br label %36

36:                                               ; preds = %35
  br label %37

37:                                               ; preds = %36
  br label %38

38:                                               ; preds = %37
  store i32 -173, ptr %6, align 4
  store i32 1, ptr %15, align 4
  br label %60

39:                                               ; preds = %27
  %40 = load ptr, ptr %7, align 8, !tbaa !7
  %41 = load ptr, ptr %8, align 8, !tbaa !32
  %42 = load i32, ptr %9, align 4, !tbaa !24
  %43 = load ptr, ptr %10, align 8, !tbaa !32
  %44 = load i32, ptr %11, align 4, !tbaa !24
  %45 = getelementptr inbounds [64 x i8], ptr %14, i64 0, i64 0
  %46 = call i32 @wc_PKCS12_create_mac(ptr noundef %40, ptr noundef %41, i32 noundef %42, ptr noundef %43, i32 noundef %44, ptr noundef %45, i32 noundef 64)
  store i32 %46, ptr %13, align 4, !tbaa !24
  %47 = icmp slt i32 %46, 0
  br i1 %47, label %48, label %50

48:                                               ; preds = %39
  %49 = load i32, ptr %13, align 4, !tbaa !24
  store i32 %49, ptr %6, align 4
  store i32 1, ptr %15, align 4
  br label %60

50:                                               ; preds = %39
  %51 = getelementptr inbounds [64 x i8], ptr %14, i64 0, i64 0
  %52 = load ptr, ptr %12, align 8, !tbaa !34
  %53 = getelementptr inbounds nuw %struct.MacData, ptr %52, i32 0, i32 0
  %54 = load ptr, ptr %53, align 8, !tbaa !16
  %55 = load ptr, ptr %12, align 8, !tbaa !34
  %56 = getelementptr inbounds nuw %struct.MacData, ptr %55, i32 0, i32 3
  %57 = load i32, ptr %56, align 4, !tbaa !35
  %58 = zext i32 %57 to i64
  %59 = call i32 @memcmp(ptr noundef %51, ptr noundef %54, i64 noundef %58) #8
  store i32 %59, ptr %6, align 4
  store i32 1, ptr %15, align 4
  br label %60

60:                                               ; preds = %50, %48, %38, %26
  call void @llvm.lifetime.end.p0(i64 64, ptr %14) #7
  call void @llvm.lifetime.end.p0(i64 4, ptr %13) #7
  call void @llvm.lifetime.end.p0(i64 8, ptr %12) #7
  %61 = load i32, ptr %6, align 4
  ret i32 %61
}

; Function Attrs: nounwind uwtable
define i32 @wc_PKCS12_verify_ex(ptr noundef %0, ptr noundef %1, i32 noundef %2) #0 {
  %4 = alloca i32, align 4
  %5 = alloca ptr, align 8
  %6 = alloca ptr, align 8
  %7 = alloca i32, align 4
  store ptr %0, ptr %5, align 8, !tbaa !7
  store ptr %1, ptr %6, align 8, !tbaa !32
  store i32 %2, ptr %7, align 4, !tbaa !24
  %8 = load ptr, ptr %5, align 8, !tbaa !7
  %9 = icmp eq ptr %8, null
  br i1 %9, label %15, label %10

10:                                               ; preds = %3
  %11 = load ptr, ptr %5, align 8, !tbaa !7
  %12 = getelementptr inbounds nuw %struct.WC_PKCS12, ptr %11, i32 0, i32 1
  %13 = load ptr, ptr %12, align 8, !tbaa !14
  %14 = icmp eq ptr %13, null
  br i1 %14, label %15, label %16

15:                                               ; preds = %10, %3
  store i32 -173, ptr %4, align 4
  br label %31

16:                                               ; preds = %10
  %17 = load ptr, ptr %5, align 8, !tbaa !7
  %18 = load ptr, ptr %5, align 8, !tbaa !7
  %19 = getelementptr inbounds nuw %struct.WC_PKCS12, ptr %18, i32 0, i32 1
  %20 = load ptr, ptr %19, align 8, !tbaa !14
  %21 = getelementptr inbounds nuw %struct.AuthenticatedSafe, ptr %20, i32 0, i32 1
  %22 = load ptr, ptr %21, align 8, !tbaa !31
  %23 = load ptr, ptr %5, align 8, !tbaa !7
  %24 = getelementptr inbounds nuw %struct.WC_PKCS12, ptr %23, i32 0, i32 1
  %25 = load ptr, ptr %24, align 8, !tbaa !14
  %26 = getelementptr inbounds nuw %struct.AuthenticatedSafe, ptr %25, i32 0, i32 4
  %27 = load i32, ptr %26, align 8, !tbaa !33
  %28 = load ptr, ptr %6, align 8, !tbaa !32
  %29 = load i32, ptr %7, align 4, !tbaa !24
  %30 = call i32 @wc_PKCS12_verify(ptr noundef %17, ptr noundef %22, i32 noundef %27, ptr noundef %28, i32 noundef %29)
  store i32 %30, ptr %4, align 4
  br label %31

31:                                               ; preds = %16, %15
  %32 = load i32, ptr %4, align 4
  ret i32 %32
}