; Function Attrs: nounwind uwtable
define i32 @wc_PKCS12_verify_ex(ptr noundef readonly captures(address_is_null) %0, ptr noundef readonly captures(none) %1, i32 noundef %2) local_unnamed_addr #0 {
  %4 = alloca [64 x i8], align 16
  %5 = icmp eq ptr %0, null
  br i1 %5, label %31, label %6

6:                                                ; preds = %3
  %7 = getelementptr inbounds nuw i8, ptr %0, i64 8
  %8 = load ptr, ptr %7, align 8, !tbaa !11
  %9 = icmp eq ptr %8, null
  br i1 %9, label %31, label %10

10:                                               ; preds = %6
  %11 = getelementptr inbounds nuw i8, ptr %8, i64 8
  %12 = load ptr, ptr %11, align 8, !tbaa !21
  %13 = getelementptr inbounds nuw i8, ptr %8, i64 24
  %14 = load i32, ptr %13, align 8, !tbaa !26
  call void @llvm.lifetime.start.p0(i64 64, ptr nonnull %4) #9
  %15 = getelementptr inbounds nuw i8, ptr %0, i64 16
  %16 = load ptr, ptr %15, align 8, !tbaa !22
  %17 = icmp eq ptr %16, null
  %18 = icmp eq ptr %12, null
  %or.cond.i = or i1 %18, %17
  br i1 %or.cond.i, label %wc_PKCS12_verify.exit, label %19

19:                                               ; preds = %10
  %20 = getelementptr inbounds nuw i8, ptr %16, i64 20
  %21 = load i32, ptr %20, align 4, !tbaa !27
  %22 = icmp ugt i32 %21, 64
  br i1 %22, label %wc_PKCS12_verify.exit, label %23

23:                                               ; preds = %19
  %24 = call fastcc i32 @wc_PKCS12_create_mac(ptr noundef nonnull readonly %0, ptr noundef nonnull %12, i32 noundef %14, ptr noundef readonly %1, i32 noundef %2, ptr noundef %4)
  %25 = icmp slt i32 %24, 0
  br i1 %25, label %wc_PKCS12_verify.exit, label %26

26:                                               ; preds = %23
  %27 = load ptr, ptr %16, align 8, !tbaa !23
  %28 = load i32, ptr %20, align 4, !tbaa !27
  %29 = zext i32 %28 to i64
  %30 = call i32 @memcmp(ptr noundef nonnull %4, ptr noundef %27, i64 noundef %29) #10
  br label %wc_PKCS12_verify.exit

wc_PKCS12_verify.exit:                            ; preds = %10, %19, %23, %26
  %.0.i = phi i32 [ %30, %26 ], [ -173, %10 ], [ -173, %19 ], [ %24, %23 ]
  call void @llvm.lifetime.end.p0(i64 64, ptr nonnull %4) #9
  br label %31

31:                                               ; preds = %3, %6, %wc_PKCS12_verify.exit
  %.0 = phi i32 [ %.0.i, %wc_PKCS12_verify.exit ], [ -173, %6 ], [ -173, %3 ]
  ret i32 %.0
}